Certificate:
    Data:
        Version: 3 (0x2)
        Serial Number: 5 (0x5)
    Signature Algorithm: sha256WithRSAEncryption
        Issuer: C=SE, ST=State, L=City, O=Local Dev, OU=Web, CN=Local Dev
        Validity
            Not Before: May 27 12:37:30 2018 GMT
            Not After : Feb 20 12:37:30 2021 GMT
        Subject: C=SE, ST=Region, O=Dev, CN=*.a-hall.local
        Subject Public Key Info:
            Public Key Algorithm: rsaEncryption
                Public-Key: (2048 bit)
                Modulus:
                    00:f4:48:37:e5:2a:4f:19:45:60:cf:ed:60:99:a6:
                    7f:99:2d:9f:08:3c:fe:59:25:f5:7a:13:e5:88:0c:
                    14:38:8d:3b:f3:ec:01:64:4c:d2:17:7a:46:f9:47:
                    39:80:08:9b:b3:e8:c3:43:7b:02:11:37:0b:44:dc:
                    89:8e:46:31:01:62:d8:bf:85:f4:55:a8:6e:2a:e0:
                    a2:37:87:7d:c8:7d:73:68:83:59:fb:54:80:ea:59:
                    06:5f:0f:bd:2a:46:8f:c0:a1:00:1f:e8:b9:f1:83:
                    05:dc:94:c1:14:bc:10:7f:b6:6d:90:0d:f1:c3:fb:
                    c8:73:de:bc:a1:24:1c:1c:69:5b:61:36:c9:24:5c:
                    98:f4:fe:ec:89:38:a8:bb:0e:c4:55:2a:79:97:59:
                    67:7c:1f:44:70:e9:e4:02:89:d3:ae:71:53:d0:bf:
                    23:b8:ed:32:8f:6b:af:1a:61:c4:61:69:1e:d6:25:
                    d8:50:50:0e:4f:1d:e4:fd:e8:bc:95:db:ea:cc:56:
                    d5:ed:5a:f3:c2:50:18:1f:c7:1f:0b:a0:24:93:06:
                    74:1b:e0:51:2b:72:2e:1f:3f:fe:57:42:ea:61:f9:
                    be:f0:6e:62:1f:d7:5e:22:13:83:d3:7b:7c:50:93:
                    36:02:7e:bc:21:62:78:b1:30:48:d4:ed:65:b8:f0:
                    e3:69
                Exponent: 65537 (0x10001)
        X509v3 extensions:
            X509v3 Basic Constraints: 
                CA:FALSE
            X509v3 Subject Key Identifier: 
                3B:C4:4E:76:3B:E6:4E:8C:0A:69:2E:AC:13:8D:59:6C:1D:7E:2D:CD
            X509v3 Subject Alternative Name: 
                DNS:*.a-hall.local, DNS:a-hall.local
    Signature Algorithm: sha256WithRSAEncryption
         2d:e9:df:bd:95:77:31:e6:af:77:95:0c:6b:4a:86:33:41:da:
         99:43:b2:da:c5:ea:f8:e5:64:ec:18:92:ef:4c:2a:ce:f3:5a:
         ba:e2:29:fe:8b:eb:bb:90:d9:1d:21:bd:50:25:fe:7c:62:38:
         c4:a5:13:0b:c0:50:aa:13:e7:b1:2c:3b:ad:36:12:dd:80:27:
         2f:97:1a:8b:5f:0e:25:f0:f7:2c:00:7f:d1:39:be:0b:3f:ea:
         c5:1d:12:0e:b9:f6:96:79:e1:3f:b7:98:bd:09:4c:e5:25:e7:
         12:66:44:02:38:84:13:15:e5:f9:61:ad:12:2e:51:f3:0f:84:
         9f:7d:50:d0:eb:0e:3f:2c:8d:ff:f6:94:a6:1d:fe:73:25:77:
         76:c1:ee:a5:43:a8:b3:a2:aa:54:44:37:a4:53:81:f9:ed:0a:
         2f:16:40:47:82:d8:4b:1f:f2:5d:15:64:ec:3f:c9:e6:45:f0:
         5b:97:f3:4b:99:0c:49:06:10:bb:86:dc:20:2a:66:e4:07:31:
         77:0e:b9:d3:c9:eb:90:73:83:45:8b:b7:b8:ee:f5:c8:85:41:
         51:16:7e:c7:b9:c9:eb:b1:64:9c:d5:a1:b7:20:eb:37:a2:64:
         b3:98:0a:b4:b9:84:66:8a:41:81:49:55:bc:28:15:4c:8c:69:
         d5:6f:95:30
-----BEGIN CERTIFICATE-----
MIIDdzCCAl+gAwIBAgIBBTANBgkqhkiG9w0BAQsFADBiMQswCQYDVQQGEwJTRTEO
MAwGA1UECAwFU3RhdGUxDTALBgNVBAcMBENpdHkxEjAQBgNVBAoMCUxvY2FsIERl
djEMMAoGA1UECwwDV2ViMRIwEAYDVQQDDAlMb2NhbCBEZXYwHhcNMTgwNTI3MTIz
NzMwWhcNMjEwMjIwMTIzNzMwWjBFMQswCQYDVQQGEwJTRTEPMA0GA1UECAwGUmVn
aW9uMQwwCgYDVQQKDANEZXYxFzAVBgNVBAMMDiouYS1oYWxsLmxvY2FsMIIBIjAN
BgkqhkiG9w0BAQEFAAOCAQ8AMIIBCgKCAQEA9Eg35SpPGUVgz+1gmaZ/mS2fCDz+
WSX1ehPliAwUOI078+wBZEzSF3pG+Uc5gAibs+jDQ3sCETcLRNyJjkYxAWLYv4X0
VahuKuCiN4d9yH1zaINZ+1SA6lkGXw+9KkaPwKEAH+i58YMF3JTBFLwQf7ZtkA3x
w/vIc968oSQcHGlbYTbJJFyY9P7siTiouw7EVSp5l1lnfB9EcOnkAonTrnFT0L8j
uO0yj2uvGmHEYWke1iXYUFAOTx3k/ei8ldvqzFbV7VrzwlAYH8cfC6AkkwZ0G+BR
K3IuHz/+V0LqYfm+8G5iH9deIhOD03t8UJM2An68IWJ4sTBI1O1luPDjaQIDAQAB
o1UwUzAJBgNVHRMEAjAAMB0GA1UdDgQWBBQ7xE52O+ZOjAppLqwTjVlsHX4tzTAn
BgNVHREEIDAegg4qLmEtaGFsbC5sb2NhbIIMYS1oYWxsLmxvY2FsMA0GCSqGSIb3
DQEBCwUAA4IBAQAt6d+9lXcx5q93lQxrSoYzQdqZQ7Laxer45WTsGJLvTCrO81q6
4in+i+u7kNkdIb1QJf58YjjEpRMLwFCqE+exLDutNhLdgCcvlxqLXw4l8PcsAH/R
Ob4LP+rFHRIOufaWeeE/t5i9CUzlJecSZkQCOIQTFeX5Ya0SLlHzD4SffVDQ6w4/
LI3/9pSmHf5zJXd2we6lQ6izoqpURDekU4H57QovFkBHgthLH/JdFWTsP8nmRfBb
l/NLmQxJBhC7htwgKmbkBzF3DrnTyeuQc4NFi7e47vXIhUFRFn7HucnrsWSc1aG3
IOs3omSzmAq0uYRmikGBSVW8KBVMjGnVb5Uw
-----END CERTIFICATE-----
